target datalayout = "e-m:e-p270:32:32-p271:32:32-p272:64:64-i64:64-i128:128-f80:128-n8:16:32:64-S128"
target triple = "x86_64-pc-linux-gnu"

; Function Attrs: alwaysinline nounwind willreturn memory(none) uwtable
define internal i32 @av_clip_intp2_c(i32 noundef %0, i32 noundef %1) #4 {
  %3 = alloca i32, align 4
  %4 = alloca i32, align 4
  %5 = alloca i32, align 4
  store i32 %0, ptr %4, align 4, !tbaa !34
  store i32 %1, ptr %5, align 4, !tbaa !34
  %6 = load i32, ptr %4, align 4, !tbaa !34
  %7 = load i32, ptr %5, align 4, !tbaa !34
  %8 = shl i32 1, %7
  %9 = add i32 %6, %8
  %10 = load i32, ptr %5, align 4, !tbaa !34
  %11 = shl i32 2, %10
  %12 = sub i32 %11, 1
  %13 = xor i32 %12, -1
  %14 = and i32 %9, %13
  %15 = icmp ne i32 %14, 0
  br i1 %15, label %16, label %23

16:                                               ; preds = %2
  %17 = load i32, ptr %4, align 4, !tbaa !34
  %18 = ashr i32 %17, 31
  %19 = load i32, ptr %5, align 4, !tbaa !34
  %20 = shl i32 1, %19
  %21 = sub nsw i32 %20, 1
  %22 = xor i32 %18, %21
  store i32 %22, ptr %3, align 4
  br label %25

23:                                               ; preds = %2
  %24 = load i32, ptr %4, align 4, !tbaa !34
  store i32 %24, ptr %3, align 4
  br label %25

25:                                               ; preds = %23, %16
  %26 = load i32, ptr %3, align 4
  ret i32 %26
}

; Function Attrs: inlinehint nounwind uwtable
define internal i32 @norm__(i64 noundef %0, i32 noundef %1) #3 {
  %3 = alloca i32, align 4
  %4 = alloca i64, align 8
  %5 = alloca i32, align 4
  store i64 %0, ptr %4, align 8, !tbaa !32
  store i32 %1, ptr %5, align 4, !tbaa !34
  %6 = load i32, ptr %5, align 4, !tbaa !34
  %7 = icmp sgt i32 %6, 0
  br i1 %7, label %8, label %19

8:                                                ; preds = %2
  %9 = load i64, ptr %4, align 8, !tbaa !32
  %10 = load i32, ptr %5, align 4, !tbaa !34
  %11 = sub nsw i32 %10, 1
  %12 = zext i32 %11 to i64
  %13 = shl i64 1, %12
  %14 = add nsw i64 %9, %13
  %15 = load i32, ptr %5, align 4, !tbaa !34
  %16 = zext i32 %15 to i64
  %17 = ashr i64 %14, %16
  %18 = trunc i64 %17 to i32
  store i32 %18, ptr %3, align 4
  br label %22

19:                                               ; preds = %2
  %20 = load i64, ptr %4, align 8, !tbaa !32
  %21 = trunc i64 %20 to i32
  store i32 %21, ptr %3, align 4
  br label %22

22:                                               ; preds = %19, %8
  %23 = load i32, ptr %3, align 4
  ret i32 %23
}

; Function Attrs: inlinehint nounwind uwtable
define internal i32 @clip23(i32 noundef %0) #3 {
  %2 = alloca i32, align 4
  store i32 %0, ptr %2, align 4, !tbaa !34
  %3 = load i32, ptr %2, align 4, !tbaa !34
  %4 = call i32 @av_clip_intp2_c(i32 noundef %3, i32 noundef 23) #8
  ret i32 %4
}

; Function Attrs: inlinehint nounwind uwtable
define internal i32 @norm23(i64 noundef %0) #3 {
  %2 = alloca i64, align 8
  store i64 %0, ptr %2, align 8, !tbaa !32
  %3 = load i64, ptr %2, align 8, !tbaa !32
  %4 = call i32 @norm__(i64 noundef %3, i32 noundef 23)
  ret i32 %4
}

; Function Attrs: nounwind uwtable
define internal void @lfe_fir_fixed_c(ptr noundef %0, ptr noundef %1, ptr noundef %2, i64 noundef %3) #1 {
  %5 = alloca ptr, align 8
  %6 = alloca ptr, align 8
  %7 = alloca ptr, align 8
  %8 = alloca i64, align 8
  %9 = alloca i32, align 4
  %10 = alloca i32, align 4
  %11 = alloca i32, align 4
  %12 = alloca i32, align 4
  %13 = alloca i64, align 8
  %14 = alloca i64, align 8
  store ptr %0, ptr %5, align 8, !tbaa !28
  store ptr %1, ptr %6, align 8, !tbaa !28
  store ptr %2, ptr %7, align 8, !tbaa !28
  store i64 %3, ptr %8, align 8, !tbaa !32
  call void @llvm.lifetime.start.p0(i64 4, ptr %9) #7
  %15 = load i64, ptr %8, align 8, !tbaa !32
  %16 = ashr i64 %15, 1
  %17 = trunc i64 %16 to i32
  store i32 %17, ptr %9, align 4, !tbaa !34
  call void @llvm.lifetime.start.p0(i64 4, ptr %10) #7
  call void @llvm.lifetime.start.p0(i64 4, ptr %11) #7
  call void @llvm.lifetime.start.p0(i64 4, ptr %12) #7
  store i32 0, ptr %10, align 4, !tbaa !34
  br label %18

18:                                               ; preds = %97, %4
  %19 = load i32, ptr %10, align 4, !tbaa !34
  %20 = load i32, ptr %9, align 4, !tbaa !34
  %21 = icmp slt i32 %19, %20
  br i1 %21, label %22, label %100

22:                                               ; preds = %18
  store i32 0, ptr %11, align 4, !tbaa !34
  br label %23

23:                                               ; preds = %89, %22
  %24 = load i32, ptr %11, align 4, !tbaa !34
  %25 = icmp slt i32 %24, 32
  br i1 %25, label %26, label %92

26:                                               ; preds = %23
  call void @llvm.lifetime.start.p0(i64 8, ptr %13) #7
  store i64 0, ptr %13, align 8, !tbaa !32
  call void @llvm.lifetime.start.p0(i64 8, ptr %14) #7
  store i64 0, ptr %14, align 8, !tbaa !32
  store i32 0, ptr %12, align 4, !tbaa !34
  br label %27

27:                                               ; preds = %70, %26
  %28 = load i32, ptr %12, align 4, !tbaa !34
  %29 = icmp slt i32 %28, 8
  br i1 %29, label %30, label %73

30:                                               ; preds = %27
  %31 = load ptr, ptr %7, align 8, !tbaa !28
  %32 = load i32, ptr %11, align 4, !tbaa !34
  %33 = mul nsw i32 %32, 8
  %34 = load i32, ptr %12, align 4, !tbaa !34
  %35 = add nsw i32 %33, %34
  %36 = sext i32 %35 to i64
  %37 = getelementptr inbounds i32, ptr %31, i64 %36
  %38 = load i32, ptr %37, align 4, !tbaa !34
  %39 = sext i32 %38 to i64
  %40 = load ptr, ptr %6, align 8, !tbaa !28
  %41 = load i32, ptr %12, align 4, !tbaa !34
  %42 = sub nsw i32 0, %41
  %43 = sext i32 %42 to i64
  %44 = getelementptr inbounds i32, ptr %40, i64 %43
  %45 = load i32, ptr %44, align 4, !tbaa !34
  %46 = sext i32 %45 to i64
  %47 = mul nsw i64 %39, %46
  %48 = load i64, ptr %13, align 8, !tbaa !32
  %49 = add nsw i64 %48, %47
  store i64 %49, ptr %13, align 8, !tbaa !32
  %50 = load ptr, ptr %7, align 8, !tbaa !28
  %51 = load i32, ptr %11, align 4, !tbaa !34
  %52 = mul nsw i32 %51, 8
  %53 = sub nsw i32 255, %52
  %54 = load i32, ptr %12, align 4, !tbaa !34
  %55 = sub nsw i32 %53, %54
  %56 = sext i32 %55 to i64
  %57 = getelementptr inbounds i32, ptr %50, i64 %56
  %58 = load i32, ptr %57, align 4, !tbaa !34
  %59 = sext i32 %58 to i64
  %60 = load ptr, ptr %6, align 8, !tbaa !28
  %61 = load i32, ptr %12, align 4, !tbaa !34
  %62 = sub nsw i32 0, %61
  %63 = sext i32 %62 to i64
  %64 = getelementptr inbounds i32, ptr %60, i64 %63
  %65 = load i32, ptr %64, align 4, !tbaa !34
  %66 = sext i32 %65 to i64
  %67 = mul nsw i64 %59, %66
  %68 = load i64, ptr %14, align 8, !tbaa !32
  %69 = add nsw i64 %68, %67
  store i64 %69, ptr %14, align 8, !tbaa !32
  br label %70

70:                                               ; preds = %30
  %71 = load i32, ptr %12, align 4, !tbaa !34
  %72 = add nsw i32 %71, 1
  store i32 %72, ptr %12, align 4, !tbaa !34
  br label %27, !llvm.loop !60

73:                                               ; preds = %27
  %74 = load i64, ptr %13, align 8, !tbaa !32
  %75 = call i32 @norm23(i64 noundef %74)
  %76 = call i32 @clip23(i32 noundef %75)
  %77 = load ptr, ptr %5, align 8, !tbaa !28
  %78 = load i32, ptr %11, align 4, !tbaa !34
  %79 = sext i32 %78 to i64
  %80 = getelementptr inbounds i32, ptr %77, i64 %79
  store i32 %76, ptr %80, align 4, !tbaa !34
  %81 = load i64, ptr %14, align 8, !tbaa !32
  %82 = call i32 @norm23(i64 noundef %81)
  %83 = call i32 @clip23(i32 noundef %82)
  %84 = load ptr, ptr %5, align 8, !tbaa !28
  %85 = load i32, ptr %11, align 4, !tbaa !34
  %86 = add nsw i32 32, %85
  %87 = sext i32 %86 to i64
  %88 = getelementptr inbounds i32, ptr %84, i64 %87
  store i32 %83, ptr %88, align 4, !tbaa !34
  call void @llvm.lifetime.end.p0(i64 8, ptr %14) #7
  call void @llvm.lifetime.end.p0(i64 8, ptr %13) #7
  br label %89

89:                                               ; preds = %73
  %90 = load i32, ptr %11, align 4, !tbaa !34
  %91 = add nsw i32 %90, 1
  store i32 %91, ptr %11, align 4, !tbaa !34
  br label %23, !llvm.loop !61

92:                                               ; preds = %23
  %93 = load ptr, ptr %6, align 8, !tbaa !28
  %94 = getelementptr inbounds nuw i32, ptr %93, i32 1
  store ptr %94, ptr %6, align 8, !tbaa !28
  %95 = load ptr, ptr %5, align 8, !tbaa !28
  %96 = getelementptr inbounds i32, ptr %95, i64 64
  store ptr %96, ptr %5, align 8, !tbaa !28
  br label %97

97:                                               ; preds = %92
  %98 = load i32, ptr %10, align 4, !tbaa !34
  %99 = add nsw i32 %98, 1
  store i32 %99, ptr %10, align 4, !tbaa !34
  br label %18, !llvm.loop !62

100:                                              ; preds = %18
  call void @llvm.lifetime.end.p0(i64 4, ptr %12) #7
  call void @llvm.lifetime.end.p0(i64 4, ptr %11) #7
  call void @llvm.lifetime.end.p0(i64 4, ptr %10) #7
  call void @llvm.lifetime.end.p0(i64 4, ptr %9) #7
  ret void
}