; Function Attrs: nofree norecurse nosync nounwind memory(argmem: readwrite) uwtable
define internal void @lfe_fir_fixed_c(ptr noundef writeonly captures(none) %0, ptr noundef readonly captures(none) %1, ptr noundef readonly captures(none) %2, i64 noundef %3) #3 {
  %5 = lshr i64 %3, 1
  %6 = trunc i64 %5 to i32
  %7 = icmp sgt i32 %6, 0
  br i1 %7, label %.preheader34, label %._crit_edge

.preheader34:                                     ; preds = %4, %37
  %.03041 = phi i32 [ %40, %37 ], [ 0, %4 ]
  %.03140 = phi ptr [ %39, %37 ], [ %0, %4 ]
  %.03239 = phi ptr [ %38, %37 ], [ %1, %4 ]
  br label %.preheader

.preheader:                                       ; preds = %.preheader34, %26
  %indvars.iv44 = phi i64 [ 0, %.preheader34 ], [ %indvars.iv.next45, %26 ]
  %8 = shl nuw nsw i64 %indvars.iv44, 3
  br label %9

9:                                                ; preds = %.preheader, %9
  %indvars.iv = phi i64 [ 0, %.preheader ], [ %indvars.iv.next, %9 ]
  %.037 = phi i64 [ 0, %.preheader ], [ %25, %9 ]
  %.02736 = phi i64 [ 0, %.preheader ], [ %19, %9 ]
  %10 = add nuw nsw i64 %indvars.iv, %8
  %11 = getelementptr inbounds nuw i32, ptr %2, i64 %10
  %12 = load i32, ptr %11, align 4, !tbaa !23
  %13 = sext i32 %12 to i64
  %14 = sub nsw i64 0, %indvars.iv
  %15 = getelementptr inbounds i32, ptr %.03239, i64 %14
  %16 = load i32, ptr %15, align 4, !tbaa !23
  %17 = sext i32 %16 to i64
  %18 = mul nsw i64 %17, %13
  %19 = add nsw i64 %18, %.02736
  %20 = sub nuw nsw i64 255, %10
  %21 = getelementptr inbounds nuw i32, ptr %2, i64 %20
  %22 = load i32, ptr %21, align 4, !tbaa !23
  %23 = sext i32 %22 to i64
  %24 = mul nsw i64 %23, %17
  %25 = add nsw i64 %24, %.037
  %indvars.iv.next = add nuw nsw i64 %indvars.iv, 1
  %exitcond.not = icmp eq i64 %indvars.iv.next, 8
  br i1 %exitcond.not, label %26, label %9, !llvm.loop !48

26:                                               ; preds = %9
  %27 = add nsw i64 %19, 4194304
  %28 = lshr i64 %27, 23
  %29 = trunc i64 %28 to i32
  %30 = tail call i32 @llvm.smax.i32(i32 %29, i32 -8388608)
  %.0.i.i = tail call range(i32 -8388608, 8388608) i32 @llvm.smin.i32(i32 %30, i32 8388607)
  %31 = getelementptr inbounds nuw i32, ptr %.03140, i64 %indvars.iv44
  store i32 %.0.i.i, ptr %31, align 4, !tbaa !23
  %32 = add nsw i64 %25, 4194304
  %33 = lshr i64 %32, 23
  %34 = trunc i64 %33 to i32
  %35 = tail call i32 @llvm.smax.i32(i32 %34, i32 -8388608)
  %.0.i.i33 = tail call range(i32 -8388608, 8388608) i32 @llvm.smin.i32(i32 %35, i32 8388607)
  %36 = getelementptr inbounds nuw i8, ptr %31, i64 128
  store i32 %.0.i.i33, ptr %36, align 4, !tbaa !23
  %indvars.iv.next45 = add nuw nsw i64 %indvars.iv44, 1
  %exitcond47.not = icmp eq i64 %indvars.iv.next45, 32
  br i1 %exitcond47.not, label %37, label %.preheader, !llvm.loop !49

37:                                               ; preds = %26
  %38 = getelementptr inbounds nuw i8, ptr %.03239, i64 4
  %39 = getelementptr inbounds nuw i8, ptr %.03140, i64 256
  %40 = add nuw nsw i32 %.03041, 1
  %exitcond48.not = icmp eq i32 %40, %6
  br i1 %exitcond48.not, label %._crit_edge, label %.preheader34, !llvm.loop !50

._crit_edge:                                      ; preds = %37, %4
  ret void
}